target datalayout = "e-m:e-p270:32:32-p271:32:32-p272:64:64-i64:64-i128:128-f80:128-n8:16:32:64-S128"
target triple = "x86_64-pc-linux-gnu"

@ff_tx_tab_131072_float = global [32769 x float] zeroinitializer, align 16

; Function Attrs: cold nounwind optsize uwtable
define internal void @ff_tx_init_tab_131072_float() #0 {
  %1 = alloca double, align 8
  %2 = alloca ptr, align 8
  %3 = alloca i32, align 4
  call void @llvm.lifetime.start.p0(i64 8, ptr %1) #10
  store double 0x3F0921FB54442D18, ptr %1, align 8, !tbaa !29
  call void @llvm.lifetime.start.p0(i64 8, ptr %2) #10
  store ptr @ff_tx_tab_131072_float, ptr %2, align 8, !tbaa !39
  call void @llvm.lifetime.start.p0(i64 4, ptr %3) #10
  store i32 0, ptr %3, align 4, !tbaa !4
  br label %4

4:                                                ; preds = %17, %0
  %5 = load i32, ptr %3, align 4, !tbaa !4
  %6 = icmp slt i32 %5, 32768
  br i1 %6, label %8, label %7

7:                                                ; preds = %4
  call void @llvm.lifetime.end.p0(i64 4, ptr %3) #10
  br label %20

8:                                                ; preds = %4
  %9 = load i32, ptr %3, align 4, !tbaa !4
  %10 = sitofp i32 %9 to double
  %11 = load double, ptr %1, align 8, !tbaa !29
  %12 = fmul nsz double %10, %11
  %13 = call nsz double @llvm.cos.f64(double %12)
  %14 = fptrunc nsz double %13 to float
  %15 = load ptr, ptr %2, align 8, !tbaa !39
  %16 = getelementptr inbounds nuw float, ptr %15, i32 1
  store ptr %16, ptr %2, align 8, !tbaa !39
  store float %14, ptr %15, align 4, !tbaa !36
  br label %17

17:                                               ; preds = %8
  %18 = load i32, ptr %3, align 4, !tbaa !4
  %19 = add nsw i32 %18, 1
  store i32 %19, ptr %3, align 4, !tbaa !4
  br label %4, !llvm.loop !55

20:                                               ; preds = %7
  %21 = load ptr, ptr %2, align 8, !tbaa !39
  store float 0.000000e+00, ptr %21, align 4, !tbaa !36
  call void @llvm.lifetime.end.p0(i64 8, ptr %2) #10
  call void @llvm.lifetime.end.p0(i64 8, ptr %1) #10
  ret void
}